target datalayout = "e-m:e-p270:32:32-p271:32:32-p272:64:64-i64:64-i128:128-f80:128-n8:16:32:64-S128"
target triple = "x86_64-unknown-linux-gnu"

%"struct.icu_75::CollationSettings" = type <{ %"class.icu_75::SharedObject", i32, i32, ptr, i32, [4 x i8], ptr, i32, [4 x i8], ptr, i32, i32, i32, [384 x i16], [4 x i8] }>
%"class.icu_75::SharedObject" = type { %"class.icu_75::UObject", i32, %"struct.std::atomic", ptr }
%"class.icu_75::UObject" = type { ptr }
%"struct.std::atomic" = type { %"struct.std::__atomic_base" }
%"struct.std::__atomic_base" = type { i32 }

; Function Attrs: mustprogress nounwind uwtable
define internal noundef signext i8 @_ZL9U_FAILURE10UErrorCode(i32 noundef %code) #1 {
entry:
  %code.addr = alloca i32, align 4
  store i32 %code, ptr %code.addr, align 4
  %0 = load i32, ptr %code.addr, align 4
  %cmp = icmp sgt i32 %0, 0
  %conv = zext i1 %cmp to i8
  ret i8 %conv
}

; Function Attrs: mustprogress uwtable
define void @_ZN6icu_7517CollationSettings11setStrengthEiiR10UErrorCode(ptr noundef nonnull align 8 dereferenceable(852) %this, i32 noundef %value, i32 noundef %defaultOptions, ptr noundef nonnull align 4 dereferenceable(4) %errorCode) #0 align 2 {
entry:
  %this.addr = alloca ptr, align 8
  %value.addr = alloca i32, align 4
  %defaultOptions.addr = alloca i32, align 4
  %errorCode.addr = alloca ptr, align 8
  %noStrength = alloca i32, align 4
  store ptr %this, ptr %this.addr, align 8
  store i32 %value, ptr %value.addr, align 4
  store i32 %defaultOptions, ptr %defaultOptions.addr, align 4
  store ptr %errorCode, ptr %errorCode.addr, align 8
  %this1 = load ptr, ptr %this.addr, align 8
  %0 = load ptr, ptr %errorCode.addr, align 8
  %1 = load i32, ptr %0, align 4
  %call = call noundef signext i8 @_ZL9U_FAILURE10UErrorCode(i32 noundef %1)
  %tobool = icmp ne i8 %call, 0
  br i1 %tobool, label %if.then, label %if.end

if.then:                                          ; preds = %entry
  br label %sw.epilog

if.end:                                           ; preds = %entry
  %options = getelementptr inbounds %"struct.icu_75::CollationSettings", ptr %this1, i32 0, i32 1
  %2 = load i32, ptr %options, align 8
  %and = and i32 %2, -61441
  store i32 %and, ptr %noStrength, align 4
  %3 = load i32, ptr %value.addr, align 4
  switch i32 %3, label %sw.default [
    i32 0, label %sw.bb
    i32 1, label %sw.bb
    i32 2, label %sw.bb
    i32 3, label %sw.bb
    i32 15, label %sw.bb
    i32 -1, label %sw.bb3
  ]

sw.bb:                                            ; preds = %if.end, %if.end, %if.end, %if.end, %if.end
  %4 = load i32, ptr %noStrength, align 4
  %5 = load i32, ptr %value.addr, align 4
  %shl = shl i32 %5, 12
  %or = or i32 %4, %shl
  %options2 = getelementptr inbounds %"struct.icu_75::CollationSettings", ptr %this1, i32 0, i32 1
  store i32 %or, ptr %options2, align 8
  br label %sw.epilog

sw.bb3:                                           ; preds = %if.end
  %6 = load i32, ptr %noStrength, align 4
  %7 = load i32, ptr %defaultOptions.addr, align 4
  %and4 = and i32 %7, 61440
  %or5 = or i32 %6, %and4
  %options6 = getelementptr inbounds %"struct.icu_75::CollationSettings", ptr %this1, i32 0, i32 1
  store i32 %or5, ptr %options6, align 8
  br label %sw.epilog

sw.default:                                       ; preds = %if.end
  %8 = load ptr, ptr %errorCode.addr, align 8
  store i32 1, ptr %8, align 4
  br label %sw.epilog

sw.epilog:                                        ; preds = %sw.default, %sw.bb3, %sw.bb, %if.then
  ret void
}